target datalayout = "e-m:e-p270:32:32-p271:32:32-p272:64:64-i64:64-i128:128-f80:128-n8:16:32:64-S128"
target triple = "x86_64-pc-linux-gnu"

@progname = internal global ptr @.str.1, align 8
@stderr = external global ptr, align 8

; Function Attrs: nounwind uwtable
define internal void @l_message(ptr noundef %0) #0 {
  %2 = alloca ptr, align 8
  store ptr %0, ptr %2, align 8, !tbaa !11
  %3 = load ptr, ptr @progname, align 8, !tbaa !11
  %4 = icmp ne ptr %3, null
  br i1 %4, label %5, label %13

5:                                                ; preds = %1
  %6 = load ptr, ptr @progname, align 8, !tbaa !11
  %7 = load ptr, ptr @stderr, align 8, !tbaa !20
  %8 = call i32 @fputs(ptr noundef %6, ptr noundef %7)
  %9 = load ptr, ptr @stderr, align 8, !tbaa !20
  %10 = call i32 @fputc(i32 noundef 58, ptr noundef %9)
  %11 = load ptr, ptr @stderr, align 8, !tbaa !20
  %12 = call i32 @fputc(i32 noundef 32, ptr noundef %11)
  br label %13

13:                                               ; preds = %5, %1
  %14 = load ptr, ptr %2, align 8, !tbaa !11
  %15 = load ptr, ptr @stderr, align 8, !tbaa !20
  %16 = call i32 @fputs(ptr noundef %14, ptr noundef %15)
  %17 = load ptr, ptr @stderr, align 8, !tbaa !20
  %18 = call i32 @fputc(i32 noundef 10, ptr noundef %17)
  %19 = load ptr, ptr @stderr, align 8, !tbaa !20
  %20 = call i32 @fflush(ptr noundef %19)
  ret void
}