; Function Attrs: cold nofree nounwind uwtable
define internal fastcc void @l_message(ptr noundef readonly captures(none) %0) unnamed_addr #3 {
  %2 = load ptr, ptr @progname, align 8, !tbaa !4
  %.not = icmp eq ptr %2, null
  br i1 %.not, label %10, label %3

3:                                                ; preds = %1
  %4 = load ptr, ptr @stderr, align 8, !tbaa !15
  %5 = tail call i32 @fputs(ptr noundef nonnull %2, ptr noundef %4) #10
  %6 = load ptr, ptr @stderr, align 8, !tbaa !15
  %7 = tail call i32 @fputc(i32 noundef 58, ptr noundef %6)
  %8 = load ptr, ptr @stderr, align 8, !tbaa !15
  %9 = tail call i32 @fputc(i32 noundef 32, ptr noundef %8)
  br label %10

10:                                               ; preds = %3, %1
  %11 = load ptr, ptr @stderr, align 8, !tbaa !15
  %12 = tail call i32 @fputs(ptr noundef %0, ptr noundef %11) #10
  %13 = load ptr, ptr @stderr, align 8, !tbaa !15
  %14 = tail call i32 @fputc(i32 noundef 10, ptr noundef %13)
  %15 = load ptr, ptr @stderr, align 8, !tbaa !15
  %16 = tail call i32 @fflush(ptr noundef %15)
  ret void
}